; Function Attrs: null_pointer_is_valid sspstrong uwtable
define internal i32 @dissect_sna_xid(ptr noundef %0, ptr noundef %1, ptr noundef %2, ptr readnone captures(none) %3) #0 {
  %5 = getelementptr inbounds nuw i8, ptr %1, i64 8
  %6 = load ptr, ptr %5, align 8
  tail call void @col_set_str(ptr noundef %6, i32 noundef 35, ptr noundef nonnull @.str.416)
  %7 = load ptr, ptr %5, align 8
  tail call void @col_clear(ptr noundef %7, i32 noundef 25)
  %8 = getelementptr inbounds nuw i8, ptr %1, i64 80
  %9 = load ptr, ptr %8, align 8
  %10 = getelementptr inbounds nuw i8, ptr %9, i64 57
  %11 = load i16, ptr %10, align 1
  %12 = or i16 %11, 4
  store i16 %12, ptr %10, align 1
  %.not = icmp eq ptr %2, null
  br i1 %.not, label %.split, label %.split13

.split:                                           ; preds = %4
  tail call fastcc void @dissect_xid(ptr noundef %0, ptr noundef %1, ptr noundef null, ptr noundef null)
  br label %17

.split13:                                         ; preds = %4
  %13 = load i32, ptr @proto_sna_xid, align 4
  %14 = tail call ptr @proto_tree_add_item(ptr noundef nonnull %2, i32 noundef %13, ptr noundef %0, i32 noundef 0, i32 noundef -1, i32 noundef 0)
  %15 = load i32, ptr @ett_sna, align 4
  %16 = tail call ptr @proto_item_add_subtree(ptr noundef %14, i32 noundef %15)
  tail call fastcc void @dissect_xid(ptr noundef %0, ptr noundef %1, ptr noundef %16, ptr noundef nonnull %2)
  br label %17

17:                                               ; preds = %.split, %.split13
  %18 = tail call i32 @tvb_captured_length(ptr noundef %0)
  ret i32 %18
}